target datalayout = "e-m:e-p270:32:32-p271:32:32-p272:64:64-i64:64-i128:128-f80:128-n8:16:32:64-S128"
target triple = "x86_64-pc-linux-gnu"

%struct.AVFilterContext = type { ptr, ptr, ptr, ptr, ptr, i32, ptr, ptr, i32, ptr, ptr, i32, i32, ptr, ptr, ptr, ptr, i32, ptr, i32, i32 }
%struct.SideDataContext = type { ptr, i32, i32 }
%struct.AVFilterLink = type { ptr, ptr, ptr, ptr, i32, i32, i32, i32, %struct.AVRational, i32, i32, i32, %struct.AVChannelLayout, %struct.AVRational, ptr, i32, %struct.AVFilterFormatsConfig, %struct.AVFilterFormatsConfig }
%struct.AVChannelLayout = type { i32, i32, %union.anon.1, ptr }
%union.anon.1 = type { i64 }
%struct.AVRational = type { i32, i32 }
%struct.AVFilterFormatsConfig = type { ptr, ptr, ptr, ptr, ptr }
%struct.AVFrame = type { [8 x ptr], [8 x i32], ptr, i32, i32, i32, i32, i32, %struct.AVRational, i64, i64, %struct.AVRational, i32, ptr, i32, i32, [8 x ptr], ptr, i32, ptr, i32, i32, i32, i32, i32, i32, i32, i64, ptr, i32, ptr, ptr, i64, i64, i64, i64, ptr, %struct.AVChannelLayout, i64 }
%struct.AVFrameSideData = type { i32, ptr, i64, ptr, ptr }

@.str.5 = private unnamed_addr constant [30 x i8] c"Assertion %s failed at %s:%d\0A\00", align 1
@.str.6 = private unnamed_addr constant [2 x i8] c"0\00", align 1
@.str.7 = private unnamed_addr constant [25 x i8] c"libavfilter/f_sidedata.c\00", align 1

; Function Attrs: nounwind uwtable
define internal i32 @filter_frame(ptr noundef %0, ptr noundef %1) #1 {
  %3 = alloca i32, align 4
  %4 = alloca ptr, align 8
  %5 = alloca ptr, align 8
  %6 = alloca ptr, align 8
  %7 = alloca ptr, align 8
  %8 = alloca ptr, align 8
  %9 = alloca ptr, align 8
  %10 = alloca i32, align 4
  store ptr %0, ptr %4, align 8, !tbaa !27
  store ptr %1, ptr %5, align 8, !tbaa !29
  call void @llvm.lifetime.start.p0(i64 8, ptr %6) #5
  %11 = load ptr, ptr %4, align 8, !tbaa !27
  %12 = getelementptr inbounds nuw %struct.AVFilterLink, ptr %11, i32 0, i32 2
  %13 = load ptr, ptr %12, align 8, !tbaa !31
  store ptr %13, ptr %6, align 8, !tbaa !4
  call void @llvm.lifetime.start.p0(i64 8, ptr %7) #5
  %14 = load ptr, ptr %6, align 8, !tbaa !4
  %15 = getelementptr inbounds nuw %struct.AVFilterContext, ptr %14, i32 0, i32 7
  %16 = load ptr, ptr %15, align 8, !tbaa !39
  %17 = getelementptr inbounds ptr, ptr %16, i64 0
  %18 = load ptr, ptr %17, align 8, !tbaa !27
  store ptr %18, ptr %7, align 8, !tbaa !27
  call void @llvm.lifetime.start.p0(i64 8, ptr %8) #5
  %19 = load ptr, ptr %6, align 8, !tbaa !4
  %20 = getelementptr inbounds nuw %struct.AVFilterContext, ptr %19, i32 0, i32 9
  %21 = load ptr, ptr %20, align 8, !tbaa !9
  store ptr %21, ptr %8, align 8, !tbaa !22
  call void @llvm.lifetime.start.p0(i64 8, ptr %9) #5
  store ptr null, ptr %9, align 8, !tbaa !40
  %22 = load ptr, ptr %8, align 8, !tbaa !22
  %23 = getelementptr inbounds nuw %struct.SideDataContext, ptr %22, i32 0, i32 2
  %24 = load i32, ptr %23, align 4, !tbaa !24
  %25 = icmp ne i32 %24, -1
  br i1 %25, label %26, label %32

26:                                               ; preds = %2
  %27 = load ptr, ptr %5, align 8, !tbaa !29
  %28 = load ptr, ptr %8, align 8, !tbaa !22
  %29 = getelementptr inbounds nuw %struct.SideDataContext, ptr %28, i32 0, i32 2
  %30 = load i32, ptr %29, align 4, !tbaa !24
  %31 = call ptr @av_frame_get_side_data(ptr noundef %27, i32 noundef %30)
  store ptr %31, ptr %9, align 8, !tbaa !40
  br label %32

32:                                               ; preds = %26, %2
  %33 = load ptr, ptr %8, align 8, !tbaa !22
  %34 = getelementptr inbounds nuw %struct.SideDataContext, ptr %33, i32 0, i32 1
  %35 = load i32, ptr %34, align 8, !tbaa !26
  switch i32 %35, label %78 [
    i32 0, label %36
    i32 1, label %44
  ]

36:                                               ; preds = %32
  %37 = load ptr, ptr %9, align 8, !tbaa !40
  %38 = icmp ne ptr %37, null
  br i1 %38, label %39, label %43

39:                                               ; preds = %36
  %40 = load ptr, ptr %7, align 8, !tbaa !27
  %41 = load ptr, ptr %5, align 8, !tbaa !29
  %42 = call i32 @ff_filter_frame(ptr noundef %40, ptr noundef %41)
  store i32 %42, ptr %3, align 4
  store i32 1, ptr %10, align 4
  br label %83

43:                                               ; preds = %36
  br label %82

44:                                               ; preds = %32
  %45 = load ptr, ptr %8, align 8, !tbaa !22
  %46 = getelementptr inbounds nuw %struct.SideDataContext, ptr %45, i32 0, i32 2
  %47 = load i32, ptr %46, align 4, !tbaa !24
  %48 = icmp eq i32 %47, -1
  br i1 %48, label %49, label %65

49:                                               ; preds = %44
  br label %50

50:                                               ; preds = %55, %49
  %51 = load ptr, ptr %5, align 8, !tbaa !29
  %52 = getelementptr inbounds nuw %struct.AVFrame, ptr %51, i32 0, i32 20
  %53 = load i32, ptr %52, align 8, !tbaa !42
  %54 = icmp ne i32 %53, 0
  br i1 %54, label %55, label %64

55:                                               ; preds = %50
  %56 = load ptr, ptr %5, align 8, !tbaa !29
  %57 = load ptr, ptr %5, align 8, !tbaa !29
  %58 = getelementptr inbounds nuw %struct.AVFrame, ptr %57, i32 0, i32 19
  %59 = load ptr, ptr %58, align 8, !tbaa !48
  %60 = getelementptr inbounds ptr, ptr %59, i64 0
  %61 = load ptr, ptr %60, align 8, !tbaa !40
  %62 = getelementptr inbounds nuw %struct.AVFrameSideData, ptr %61, i32 0, i32 0
  %63 = load i32, ptr %62, align 8, !tbaa !49
  call void @av_frame_remove_side_data(ptr noundef %56, i32 noundef %63)
  br label %50, !llvm.loop !51

64:                                               ; preds = %50
  br label %74

65:                                               ; preds = %44
  %66 = load ptr, ptr %9, align 8, !tbaa !40
  %67 = icmp ne ptr %66, null
  br i1 %67, label %68, label %73

68:                                               ; preds = %65
  %69 = load ptr, ptr %5, align 8, !tbaa !29
  %70 = load ptr, ptr %8, align 8, !tbaa !22
  %71 = getelementptr inbounds nuw %struct.SideDataContext, ptr %70, i32 0, i32 2
  %72 = load i32, ptr %71, align 4, !tbaa !24
  call void @av_frame_remove_side_data(ptr noundef %69, i32 noundef %72)
  br label %73

73:                                               ; preds = %68, %65
  br label %74

74:                                               ; preds = %73, %64
  %75 = load ptr, ptr %7, align 8, !tbaa !27
  %76 = load ptr, ptr %5, align 8, !tbaa !29
  %77 = call i32 @ff_filter_frame(ptr noundef %75, ptr noundef %76)
  store i32 %77, ptr %3, align 4
  store i32 1, ptr %10, align 4
  br label %83

78:                                               ; preds = %32
  br label %79

79:                                               ; preds = %78
  call void (ptr, i32, ptr, ...) @av_log(ptr noundef null, i32 noundef 0, ptr noundef @.str.5, ptr noundef @.str.6, ptr noundef @.str.7, i32 noundef 125)
  call void @abort() #6
  unreachable

80:                                               ; No predecessors!
  br label %81

81:                                               ; preds = %80
  br label %82

82:                                               ; preds = %81, %43
  call void @av_frame_free(ptr noundef %5)
  store i32 0, ptr %3, align 4
  store i32 1, ptr %10, align 4
  br label %83

83:                                               ; preds = %82, %74, %39
  call void @llvm.lifetime.end.p0(i64 8, ptr %9) #5
  call void @llvm.lifetime.end.p0(i64 8, ptr %8) #5
  call void @llvm.lifetime.end.p0(i64 8, ptr %7) #5
  call void @llvm.lifetime.end.p0(i64 8, ptr %6) #5
  %84 = load i32, ptr %3, align 4
  ret i32 %84
}