; Function Attrs: nounwind uwtable
define internal i32 @filter_frame(ptr noundef readonly captures(none) %0, ptr noundef %1) #1 {
  %3 = alloca ptr, align 8
  store ptr %1, ptr %3, align 8, !tbaa !23
  %4 = getelementptr inbounds nuw i8, ptr %0, i64 16
  %5 = load ptr, ptr %4, align 8, !tbaa !25
  %6 = getelementptr inbounds nuw i8, ptr %5, i64 56
  %7 = load ptr, ptr %6, align 8, !tbaa !34
  %8 = load ptr, ptr %7, align 8, !tbaa !35
  %9 = getelementptr inbounds nuw i8, ptr %5, i64 72
  %10 = load ptr, ptr %9, align 8, !tbaa !4
  %11 = getelementptr inbounds nuw i8, ptr %10, i64 12
  %12 = load i32, ptr %11, align 4, !tbaa !20
  %.not = icmp eq i32 %12, -1
  br i1 %.not, label %16, label %13

13:                                               ; preds = %2
  %14 = tail call ptr @av_frame_get_side_data(ptr noundef %1, i32 noundef %12) #4
  %15 = icmp eq ptr %14, null
  br label %16

16:                                               ; preds = %13, %2
  %.0 = phi i1 [ %15, %13 ], [ true, %2 ]
  %17 = getelementptr inbounds nuw i8, ptr %10, i64 8
  %18 = load i32, ptr %17, align 8, !tbaa !22
  switch i32 %18, label %36 [
    i32 0, label %19
    i32 1, label %22
  ]

19:                                               ; preds = %16
  br i1 %.0, label %37, label %20

20:                                               ; preds = %19
  %21 = tail call i32 @ff_filter_frame(ptr noundef %8, ptr noundef %1) #4
  br label %38

22:                                               ; preds = %16
  %23 = load i32, ptr %11, align 4, !tbaa !20
  %24 = icmp eq i32 %23, -1
  br i1 %24, label %.preheader, label %33

.preheader:                                       ; preds = %22
  %25 = getelementptr inbounds nuw i8, ptr %1, i64 272
  %26 = load i32, ptr %25, align 8, !tbaa !37
  %.not1618 = icmp eq i32 %26, 0
  br i1 %.not1618, label %.loopexit, label %.lr.ph

.lr.ph:                                           ; preds = %.preheader
  %27 = getelementptr inbounds nuw i8, ptr %1, i64 264
  br label %28

28:                                               ; preds = %.lr.ph, %28
  %29 = load ptr, ptr %27, align 8, !tbaa !43
  %30 = load ptr, ptr %29, align 8, !tbaa !44
  %31 = load i32, ptr %30, align 8, !tbaa !46
  tail call void @av_frame_remove_side_data(ptr noundef nonnull %1, i32 noundef %31) #4
  %32 = load i32, ptr %25, align 8, !tbaa !37
  %.not16 = icmp eq i32 %32, 0
  br i1 %.not16, label %.loopexit, label %28, !llvm.loop !48

33:                                               ; preds = %22
  br i1 %.0, label %.loopexit, label %34

34:                                               ; preds = %33
  tail call void @av_frame_remove_side_data(ptr noundef %1, i32 noundef %23) #4
  br label %.loopexit

.loopexit:                                        ; preds = %28, %.preheader, %33, %34
  %35 = tail call i32 @ff_filter_frame(ptr noundef %8, ptr noundef %1) #4
  br label %38

36:                                               ; preds = %16
  tail call void (ptr, i32, ptr, ...) @av_log(ptr noundef null, i32 noundef 0, ptr noundef nonnull @.str.5, ptr noundef nonnull @.str.6, ptr noundef nonnull @.str.7, i32 noundef 125) #4
  tail call void @abort() #5
  unreachable

37:                                               ; preds = %19
  call void @av_frame_free(ptr noundef nonnull %3) #4
  br label %38

38:                                               ; preds = %37, %.loopexit, %20
  %.012 = phi i32 [ %35, %.loopexit ], [ %21, %20 ], [ 0, %37 ]
  ret i32 %.012
}